target datalayout = "e-m:e-p270:32:32-p271:32:32-p272:64:64-i64:64-i128:128-f80:128-n8:16:32:64-S128"
target triple = "x86_64-pc-linux-gnu"

%"class.llvm::detail::SlowDynamicAPInt" = type { %"class.llvm::APInt" }
%"class.llvm::APInt" = type <{ %union.anon, i32, [4 x i8] }>
%union.anon = type { i64 }
%"class.llvm::function_ref" = type { ptr, i64 }
%"struct.std::_Mem_fn" = type { %"class.std::_Mem_fn_base" }
%"class.std::_Mem_fn_base" = type { { i64, i64 } }

@_ZN4llvm6detail16SlowDynamicAPIntC1El = unnamed_addr alias void (ptr, i64), ptr @_ZN4llvm6detail16SlowDynamicAPIntC2El
@_ZN4llvm6detail16SlowDynamicAPIntC1ERKNS_5APIntE = unnamed_addr alias void (ptr, ptr), ptr @_ZN4llvm6detail16SlowDynamicAPIntC2ERKNS_5APIntE

; Function Attrs: mustprogress nounwind uwtable
define linkonce_odr hidden noundef zeroext i1 @_ZNK4llvm5APInt12isSingleWordEv(ptr noundef nonnull align 8 dereferenceable(12) %0) #0 comdat align 2 {
  %2 = alloca ptr, align 8
  store ptr %0, ptr %2, align 8
  %3 = load ptr, ptr %2, align 8
  %4 = getelementptr inbounds nuw %"class.llvm::APInt", ptr %3, i32 0, i32 1
  %5 = load i32, ptr %4, align 8
  %6 = icmp ule i32 %5, 64
  ret i1 %6
}

; Function Attrs: mustprogress nounwind uwtable
define linkonce_odr hidden void @_ZNSt12_Mem_fn_baseIMN4llvm5APIntEKFS1_RKS1_RbELb1EEC2ES6_(ptr noundef nonnull align 8 dereferenceable(16) %0, i64 %1, i64 %2) unnamed_addr #0 comdat align 2 {
  %4 = alloca { i64, i64 }, align 8
  %5 = alloca ptr, align 8
  %6 = alloca { i64, i64 }, align 8
  %7 = getelementptr inbounds nuw { i64, i64 }, ptr %4, i32 0, i32 0
  store i64 %1, ptr %7, align 8
  %8 = getelementptr inbounds nuw { i64, i64 }, ptr %4, i32 0, i32 1
  store i64 %2, ptr %8, align 8
  %9 = load { i64, i64 }, ptr %4, align 8
  store ptr %0, ptr %5, align 8
  store { i64, i64 } %9, ptr %6, align 8
  %10 = load ptr, ptr %5, align 8
  %11 = getelementptr inbounds nuw %"class.std::_Mem_fn_base", ptr %10, i32 0, i32 0
  %12 = load { i64, i64 }, ptr %6, align 8
  store { i64, i64 } %12, ptr %11, align 8
  ret void
}

; Function Attrs: mustprogress nounwind uwtable
define linkonce_odr hidden noundef zeroext i1 @_ZNK4llvm5APInt12needsCleanupEv(ptr noundef nonnull align 8 dereferenceable(12) %0) #0 comdat align 2 {
  %2 = alloca ptr, align 8
  store ptr %0, ptr %2, align 8
  %3 = load ptr, ptr %2, align 8
  %4 = call noundef zeroext i1 @_ZNK4llvm5APInt12isSingleWordEv(ptr noundef nonnull align 8 dereferenceable(12) %3)
  %5 = xor i1 %4, true
  ret i1 %5
}

; Function Attrs: mustprogress nounwind uwtable
define linkonce_odr hidden void @_ZNSt7_Mem_fnIMN4llvm5APIntEKFS1_RKS1_RbEECI2St12_Mem_fn_baseIS6_Lb1EEES6_(ptr noundef nonnull align 8 dereferenceable(16) %0, i64 %1, i64 %2) unnamed_addr #0 comdat align 2 {
  %4 = alloca { i64, i64 }, align 8
  %5 = alloca ptr, align 8
  %6 = alloca { i64, i64 }, align 8
  %7 = alloca { i64, i64 }, align 8
  %8 = getelementptr inbounds nuw { i64, i64 }, ptr %4, i32 0, i32 0
  store i64 %1, ptr %8, align 8
  %9 = getelementptr inbounds nuw { i64, i64 }, ptr %4, i32 0, i32 1
  store i64 %2, ptr %9, align 8
  %10 = load { i64, i64 }, ptr %4, align 8
  store ptr %0, ptr %5, align 8
  store { i64, i64 } %10, ptr %6, align 8
  %11 = load ptr, ptr %5, align 8
  %12 = load { i64, i64 }, ptr %6, align 8
  store { i64, i64 } %12, ptr %7, align 8
  %13 = getelementptr inbounds nuw { i64, i64 }, ptr %7, i32 0, i32 0
  %14 = load i64, ptr %13, align 8
  %15 = getelementptr inbounds nuw { i64, i64 }, ptr %7, i32 0, i32 1
  %16 = load i64, ptr %15, align 8
  call void @_ZNSt12_Mem_fn_baseIMN4llvm5APIntEKFS1_RKS1_RbELb1EEC2ES6_(ptr noundef nonnull align 8 dereferenceable(16) %11, i64 %14, i64 %16) #5
  ret void
}

; Function Attrs: mustprogress nounwind uwtable
define linkonce_odr hidden void @_ZN4llvm5APIntD2Ev(ptr noundef nonnull align 8 dereferenceable(12) %0) unnamed_addr #0 comdat align 2 {
  %2 = alloca ptr, align 8
  store ptr %0, ptr %2, align 8
  %3 = load ptr, ptr %2, align 8
  %4 = call noundef zeroext i1 @_ZNK4llvm5APInt12needsCleanupEv(ptr noundef nonnull align 8 dereferenceable(12) %3)
  br i1 %4, label %5, label %11

5:                                                ; preds = %1
  %6 = getelementptr inbounds nuw %"class.llvm::APInt", ptr %3, i32 0, i32 0
  %7 = load ptr, ptr %6, align 8
  %8 = icmp eq ptr %7, null
  br i1 %8, label %10, label %9

9:                                                ; preds = %5
  call void @_ZdaPv(ptr noundef %7) #7
  br label %10

10:                                               ; preds = %9, %5
  br label %11

11:                                               ; preds = %10, %1
  ret void
}

; Function Attrs: mustprogress nounwind uwtable
define linkonce_odr hidden void @_ZN4llvm12function_refIFNS_5APIntERKS1_S3_RbEEC2ISt7_Mem_fnIMS1_KFS1_S3_S4_EEEEOT_PNSt9enable_ifIXntsr3std7is_sameINS_12remove_cvrefISC_E4typeES6_EE5valueEvE4typeEPNSE_IXooL_ZNSt17integral_constantIbLb0EE5valueEEsr3std14is_convertibleIDTclclsr3stdE7declvalISC_EEclL_ZSt7declvalIS3_EDTcl9__declvalISC_ELi0EEEvEEclL_ZSN_IS3_ESO_vEEclL_ZSN_IS4_ESO_vEEEES1_EE5valueEvE4typeE(ptr noundef nonnull align 8 dereferenceable(16) %0, ptr noundef nonnull align 8 dereferenceable(16) %1, ptr noundef %2, ptr noundef %3) unnamed_addr #0 comdat align 2 {
  %5 = alloca ptr, align 8
  %6 = alloca ptr, align 8
  %7 = alloca ptr, align 8
  %8 = alloca ptr, align 8
  store ptr %0, ptr %5, align 8
  store ptr %1, ptr %6, align 8
  store ptr %2, ptr %7, align 8
  store ptr %3, ptr %8, align 8
  %9 = load ptr, ptr %5, align 8
  %10 = getelementptr inbounds nuw %"class.llvm::function_ref", ptr %9, i32 0, i32 0
  store ptr @_ZN4llvm12function_refIFNS_5APIntERKS1_S3_RbEE11callback_fnISt7_Mem_fnIMS1_KFS1_S3_S4_EEEES1_lS3_S3_S4_, ptr %10, align 8
  %11 = getelementptr inbounds nuw %"class.llvm::function_ref", ptr %9, i32 0, i32 1
  %12 = load ptr, ptr %6, align 8
  %13 = ptrtoint ptr %12 to i64
  store i64 %13, ptr %11, align 8
  ret void
}

; Function Attrs: mustprogress nounwind uwtable
define linkonce_odr { i64, i64 } @_ZSt6mem_fnIKFN4llvm5APIntERKS1_RbES1_ESt7_Mem_fnIMT0_T_ES9_(i64 %0, i64 %1) #0 comdat {
  %3 = alloca %"struct.std::_Mem_fn", align 8
  %4 = alloca { i64, i64 }, align 8
  %5 = alloca { i64, i64 }, align 8
  %6 = alloca { i64, i64 }, align 8
  %7 = getelementptr inbounds nuw { i64, i64 }, ptr %4, i32 0, i32 0
  store i64 %0, ptr %7, align 8
  %8 = getelementptr inbounds nuw { i64, i64 }, ptr %4, i32 0, i32 1
  store i64 %1, ptr %8, align 8
  %9 = load { i64, i64 }, ptr %4, align 8
  store { i64, i64 } %9, ptr %5, align 8
  %10 = load { i64, i64 }, ptr %5, align 8
  store { i64, i64 } %10, ptr %6, align 8
  %11 = getelementptr inbounds nuw { i64, i64 }, ptr %6, i32 0, i32 0
  %12 = load i64, ptr %11, align 8
  %13 = getelementptr inbounds nuw { i64, i64 }, ptr %6, i32 0, i32 1
  %14 = load i64, ptr %13, align 8
  call void @_ZNSt7_Mem_fnIMN4llvm5APIntEKFS1_RKS1_RbEECI2St12_Mem_fn_baseIS6_Lb1EEES6_(ptr noundef nonnull align 8 dereferenceable(16) %3, i64 %12, i64 %14) #5
  %15 = getelementptr inbounds nuw %"struct.std::_Mem_fn", ptr %3, i32 0, i32 0
  %16 = getelementptr inbounds nuw %"class.std::_Mem_fn_base", ptr %15, i32 0, i32 0
  %17 = load { i64, i64 }, ptr %16, align 8
  ret { i64, i64 } %17
}

; Function Attrs: mustprogress nounwind uwtable
define linkonce_odr hidden void @_ZN4llvm6detail16SlowDynamicAPIntD2Ev(ptr noundef nonnull align 8 dereferenceable(16) %0) unnamed_addr #0 comdat align 2 {
  %2 = alloca ptr, align 8
  store ptr %0, ptr %2, align 8
  %3 = load ptr, ptr %2, align 8
  %4 = getelementptr inbounds nuw %"class.llvm::detail::SlowDynamicAPInt", ptr %3, i32 0, i32 0
  call void @_ZN4llvm5APIntD2Ev(ptr noundef nonnull align 8 dereferenceable(12) %4) #5
  ret void
}

; Function Attrs: mustprogress nounwind uwtable
define dso_local void @_ZNK4llvm6detail16SlowDynamicAPIntplERKS1_(ptr dead_on_unwind noalias writable sret(%"class.llvm::detail::SlowDynamicAPInt") align 8 %0, ptr noundef nonnull align 8 dereferenceable(16) %1, ptr noundef nonnull align 8 dereferenceable(16) %2) #0 align 2 {
  %4 = alloca ptr, align 8
  %5 = alloca ptr, align 8
  %6 = alloca ptr, align 8
  %7 = alloca %"class.llvm::APInt", align 8
  %8 = alloca %"class.llvm::function_ref", align 8
  %9 = alloca %"struct.std::_Mem_fn", align 8
  %10 = alloca { i64, i64 }, align 8
  store ptr %0, ptr %4, align 8
  store ptr %1, ptr %5, align 8
  store ptr %2, ptr %6, align 8
  %11 = load ptr, ptr %5, align 8
  %12 = getelementptr inbounds nuw %"class.llvm::detail::SlowDynamicAPInt", ptr %11, i32 0, i32 0
  %13 = load ptr, ptr %6, align 8
  %14 = getelementptr inbounds nuw %"class.llvm::detail::SlowDynamicAPInt", ptr %13, i32 0, i32 0
  store { i64, i64 } { i64 ptrtoint (ptr @_ZNK4llvm5APInt7sadd_ovERKS0_Rb to i64), i64 0 }, ptr %10, align 8
  %15 = getelementptr inbounds nuw { i64, i64 }, ptr %10, i32 0, i32 0
  %16 = load i64, ptr %15, align 8
  %17 = getelementptr inbounds nuw { i64, i64 }, ptr %10, i32 0, i32 1
  %18 = load i64, ptr %17, align 8
  %19 = call { i64, i64 } @_ZSt6mem_fnIKFN4llvm5APIntERKS1_RbES1_ESt7_Mem_fnIMT0_T_ES9_(i64 %16, i64 %18) #5
  %20 = getelementptr inbounds nuw %"struct.std::_Mem_fn", ptr %9, i32 0, i32 0
  %21 = getelementptr inbounds nuw %"class.std::_Mem_fn_base", ptr %20, i32 0, i32 0
  %22 = getelementptr inbounds nuw { i64, i64 }, ptr %21, i32 0, i32 0
  %23 = extractvalue { i64, i64 } %19, 0
  store i64 %23, ptr %22, align 8
  %24 = getelementptr inbounds nuw { i64, i64 }, ptr %21, i32 0, i32 1
  %25 = extractvalue { i64, i64 } %19, 1
  store i64 %25, ptr %24, align 8
  call void @_ZN4llvm12function_refIFNS_5APIntERKS1_S3_RbEEC2ISt7_Mem_fnIMS1_KFS1_S3_S4_EEEEOT_PNSt9enable_ifIXntsr3std7is_sameINS_12remove_cvrefISC_E4typeES6_EE5valueEvE4typeEPNSE_IXooL_ZNSt17integral_constantIbLb0EE5valueEEsr3std14is_convertibleIDTclclsr3stdE7declvalISC_EEclL_ZSt7declvalIS3_EDTcl9__declvalISC_ELi0EEEvEEclL_ZSN_IS3_ESO_vEEclL_ZSN_IS4_ESO_vEEEES1_EE5valueEvE4typeE(ptr noundef nonnull align 8 dereferenceable(16) %8, ptr noundef nonnull align 8 dereferenceable(16) %9, ptr noundef null, ptr noundef null)
  %26 = getelementptr inbounds nuw { ptr, i64 }, ptr %8, i32 0, i32 0
  %27 = load ptr, ptr %26, align 8
  %28 = getelementptr inbounds nuw { ptr, i64 }, ptr %8, i32 0, i32 1
  %29 = load i64, ptr %28, align 8
  call void @_Z25runOpWithExpandOnOverflowRKN4llvm5APIntES2_NS_12function_refIFS0_S2_S2_RbEEE(ptr dead_on_unwind writable sret(%"class.llvm::APInt") align 8 %7, ptr noundef nonnull align 8 dereferenceable(12) %12, ptr noundef nonnull align 8 dereferenceable(12) %14, ptr %27, i64 %29)
  call void @_ZN4llvm6detail16SlowDynamicAPIntC1ERKNS_5APIntE(ptr noundef nonnull align 8 dereferenceable(16) %0, ptr noundef nonnull align 8 dereferenceable(12) %7)
  call void @_ZN4llvm5APIntD2Ev(ptr noundef nonnull align 8 dereferenceable(12) %7) #5
  ret void
}

; Function Attrs: mustprogress nounwind uwtable
define dso_local void @_ZN4llvm6detailplERKNS0_16SlowDynamicAPIntEl(ptr dead_on_unwind noalias writable sret(%"class.llvm::detail::SlowDynamicAPInt") align 8 %0, ptr noundef nonnull align 8 dereferenceable(16) %1, i64 noundef %2) #0 {
  %4 = alloca ptr, align 8
  %5 = alloca ptr, align 8
  %6 = alloca i64, align 8
  %7 = alloca %"class.llvm::detail::SlowDynamicAPInt", align 8
  store ptr %0, ptr %4, align 8
  store ptr %1, ptr %5, align 8
  store i64 %2, ptr %6, align 8
  %8 = load ptr, ptr %5, align 8
  %9 = load i64, ptr %6, align 8
  call void @_ZN4llvm6detail16SlowDynamicAPIntC1El(ptr noundef nonnull align 8 dereferenceable(16) %7, i64 noundef %9)
  call void @_ZNK4llvm6detail16SlowDynamicAPIntplERKS1_(ptr dead_on_unwind writable sret(%"class.llvm::detail::SlowDynamicAPInt") align 8 %0, ptr noundef nonnull align 8 dereferenceable(16) %8, ptr noundef nonnull align 8 dereferenceable(16) %7)
  call void @_ZN4llvm6detail16SlowDynamicAPIntD2Ev(ptr noundef nonnull align 8 dereferenceable(16) %7) #5
  ret void
}